; ModuleID = '5/813.c'
source_filename = "5/813.c"
target datalayout = "e-m:e-p270:32:32-p271:32:32-p272:64:64-i64:64-f80:128-n8:16:32:64-S128"
target triple = "x86_64-pc-linux-gnu"

@.str = private unnamed_addr constant [3 x i8] c"no\00", align 1
@.str.1 = private unnamed_addr constant [4 x i8] c"yes\00", align 1
@.str.2 = private unnamed_addr constant [6 x i8] c"error\00", align 1

; Function Attrs: noinline nounwind uwtable
define dso_local i32 @main() #0 {
  %1 = alloca i32, align 4
  %2 = alloca double, align 8
  %3 = alloca i32, align 4
  %4 = alloca i32, align 4
  %5 = alloca i8, align 1
  %6 = alloca [600 x i8], align 16
  %7 = alloca [600 x i8], align 16
  %8 = alloca i32, align 4
  %9 = alloca i32, align 4
  %10 = alloca i32, align 4
  store i32 0, i32* %1, align 4
  store i32 0, i32* %3, align 4
  store i32 1, i32* %4, align 4
  %11 = call i32 (i8*, ...) bitcast (i32 (...)* @gets to i32 (i8*, ...)*)(i8* %5)
  %12 = call double @atof(i8* %5) #3
  store double %12, double* %2, align 8
  %13 = getelementptr inbounds [600 x i8], [600 x i8]* %6, i64 0, i64 0
  %14 = call i32 (i8*, ...) bitcast (i32 (...)* @gets to i32 (i8*, ...)*)(i8* %13)
  %15 = getelementptr inbounds [600 x i8], [600 x i8]* %7, i64 0, i64 0
  %16 = call i32 (i8*, ...) bitcast (i32 (...)* @gets to i32 (i8*, ...)*)(i8* %15)
  store i32 0, i32* %8, align 4
  br label %17

17:                                               ; preds = %53, %0
  %18 = load i32, i32* %8, align 4
  %19 = sext i32 %18 to i64
  %20 = getelementptr inbounds [600 x i8], [600 x i8]* %6, i64 0, i64 0
  %21 = call i64 @strlen(i8* %20) #3
  %22 = icmp ult i64 %19, %21
  br i1 %22, label %23, label %56

23:                                               ; preds = %17
  %24 = load i32, i32* %8, align 4
  %25 = sext i32 %24 to i64
  %26 = getelementptr inbounds [600 x i8], [600 x i8]* %6, i64 0, i64 %25
  %27 = load i8, i8* %26, align 1
  %28 = sext i8 %27 to i32
  %29 = icmp ne i32 %28, 65
  br i1 %29, label %30, label %52

30:                                               ; preds = %23
  %31 = load i32, i32* %8, align 4
  %32 = sext i32 %31 to i64
  %33 = getelementptr inbounds [600 x i8], [600 x i8]* %6, i64 0, i64 %32
  %34 = load i8, i8* %33, align 1
  %35 = sext i8 %34 to i32
  %36 = icmp ne i32 %35, 67
  br i1 %36, label %37, label %52

37:                                               ; preds = %30
  %38 = load i32, i32* %8, align 4
  %39 = sext i32 %38 to i64
  %40 = getelementptr inbounds [600 x i8], [600 x i8]* %6, i64 0, i64 %39
  %41 = load i8, i8* %40, align 1
  %42 = sext i8 %41 to i32
  %43 = icmp ne i32 %42, 71
  br i1 %43, label %44, label %52

44:                                               ; preds = %37
  %45 = load i32, i32* %8, align 4
  %46 = sext i32 %45 to i64
  %47 = getelementptr inbounds [600 x i8], [600 x i8]* %6, i64 0, i64 %46
  %48 = load i8, i8* %47, align 1
  %49 = sext i8 %48 to i32
  %50 = icmp ne i32 %49, 84
  br i1 %50, label %51, label %52

51:                                               ; preds = %44
  store i32 0, i32* %4, align 4
  br label %52

52:                                               ; preds = %51, %44, %37, %30, %23
  br label %53

53:                                               ; preds = %52
  %54 = load i32, i32* %8, align 4
  %55 = add nsw i32 %54, 1
  store i32 %55, i32* %8, align 4
  br label %17

56:                                               ; preds = %17
  store i32 0, i32* %9, align 4
  br label %57

57:                                               ; preds = %93, %56
  %58 = load i32, i32* %9, align 4
  %59 = sext i32 %58 to i64
  %60 = getelementptr inbounds [600 x i8], [600 x i8]* %7, i64 0, i64 0
  %61 = call i64 @strlen(i8* %60) #3
  %62 = icmp ult i64 %59, %61
  br i1 %62, label %63, label %96

63:                                               ; preds = %57
  %64 = load i32, i32* %9, align 4
  %65 = sext i32 %64 to i64
  %66 = getelementptr inbounds [600 x i8], [600 x i8]* %7, i64 0, i64 %65
  %67 = load i8, i8* %66, align 1
  %68 = sext i8 %67 to i32
  %69 = icmp ne i32 %68, 65
  br i1 %69, label %70, label %92

70:                                               ; preds = %63
  %71 = load i32, i32* %9, align 4
  %72 = sext i32 %71 to i64
  %73 = getelementptr inbounds [600 x i8], [600 x i8]* %7, i64 0, i64 %72
  %74 = load i8, i8* %73, align 1
  %75 = sext i8 %74 to i32
  %76 = icmp ne i32 %75, 67
  br i1 %76, label %77, label %92

77:                                               ; preds = %70
  %78 = load i32, i32* %9, align 4
  %79 = sext i32 %78 to i64
  %80 = getelementptr inbounds [600 x i8], [600 x i8]* %7, i64 0, i64 %79
  %81 = load i8, i8* %80, align 1
  %82 = sext i8 %81 to i32
  %83 = icmp ne i32 %82, 71
  br i1 %83, label %84, label %92

84:                                               ; preds = %77
  %85 = load i32, i32* %9, align 4
  %86 = sext i32 %85 to i64
  %87 = getelementptr inbounds [600 x i8], [600 x i8]* %7, i64 0, i64 %86
  %88 = load i8, i8* %87, align 1
  %89 = sext i8 %88 to i32
  %90 = icmp ne i32 %89, 84
  br i1 %90, label %91, label %92

91:                                               ; preds = %84
  store i32 0, i32* %4, align 4
  br label %92

92:                                               ; preds = %91, %84, %77, %70, %63
  br label %93

93:                                               ; preds = %92
  %94 = load i32, i32* %9, align 4
  %95 = add nsw i32 %94, 1
  store i32 %95, i32* %9, align 4
  br label %57

96:                                               ; preds = %57
  %97 = getelementptr inbounds [600 x i8], [600 x i8]* %6, i64 0, i64 0
  %98 = call i64 @strlen(i8* %97) #3
  %99 = getelementptr inbounds [600 x i8], [600 x i8]* %7, i64 0, i64 0
  %100 = call i64 @strlen(i8* %99) #3
  %101 = icmp ne i64 %98, %100
  br i1 %101, label %102, label %103

102:                                              ; preds = %96
  store i32 0, i32* %4, align 4
  br label %154

103:                                              ; preds = %96
  %104 = getelementptr inbounds [600 x i8], [600 x i8]* %6, i64 0, i64 0
  %105 = call i64 @strlen(i8* %104) #3
  %106 = getelementptr inbounds [600 x i8], [600 x i8]* %7, i64 0, i64 0
  %107 = call i64 @strlen(i8* %106) #3
  %108 = icmp eq i64 %105, %107
  br i1 %108, label %109, label %153

109:                                              ; preds = %103
  %110 = load i32, i32* %4, align 4
  %111 = icmp ne i32 %110, 0
  br i1 %111, label %112, label %153

112:                                              ; preds = %109
  store i32 0, i32* %10, align 4
  br label %113

113:                                              ; preds = %135, %112
  %114 = load i32, i32* %10, align 4
  %115 = sext i32 %114 to i64
  %116 = getelementptr inbounds [600 x i8], [600 x i8]* %6, i64 0, i64 0
  %117 = call i64 @strlen(i8* %116) #3
  %118 = icmp ult i64 %115, %117
  br i1 %118, label %119, label %138

119:                                              ; preds = %113
  %120 = load i32, i32* %10, align 4
  %121 = sext i32 %120 to i64
  %122 = getelementptr inbounds [600 x i8], [600 x i8]* %7, i64 0, i64 %121
  %123 = load i8, i8* %122, align 1
  %124 = sext i8 %123 to i32
  %125 = load i32, i32* %10, align 4
  %126 = sext i32 %125 to i64
  %127 = getelementptr inbounds [600 x i8], [600 x i8]* %6, i64 0, i64 %126
  %128 = load i8, i8* %127, align 1
  %129 = sext i8 %128 to i32
  %130 = icmp eq i32 %124, %129
  br i1 %130, label %131, label %134

131:                                              ; preds = %119
  %132 = load i32, i32* %3, align 4
  %133 = add nsw i32 %132, 1
  store i32 %133, i32* %3, align 4
  br label %134

134:                                              ; preds = %131, %119
  br label %135

135:                                              ; preds = %134
  %136 = load i32, i32* %10, align 4
  %137 = add nsw i32 %136, 1
  store i32 %137, i32* %10, align 4
  br label %113

138:                                              ; preds = %113
  %139 = load i32, i32* %3, align 4
  %140 = sitofp i32 %139 to double
  %141 = fmul double 1.000000e+00, %140
  %142 = getelementptr inbounds [600 x i8], [600 x i8]* %6, i64 0, i64 0
  %143 = call i64 @strlen(i8* %142) #3
  %144 = uitofp i64 %143 to double
  %145 = fdiv double %141, %144
  %146 = load double, double* %2, align 8
  %147 = fcmp olt double %145, %146
  br i1 %147, label %148, label %150

148:                                              ; preds = %138
  %149 = call i32 (i8*, ...) @printf(i8* getelementptr inbounds ([3 x i8], [3 x i8]* @.str, i64 0, i64 0))
  br label %152

150:                                              ; preds = %138
  %151 = call i32 (i8*, ...) @printf(i8* getelementptr inbounds ([4 x i8], [4 x i8]* @.str.1, i64 0, i64 0))
  br label %152

152:                                              ; preds = %150, %148
  br label %153

153:                                              ; preds = %152, %109, %103
  br label %154

154:                                              ; preds = %153, %102
  %155 = load i32, i32* %4, align 4
  %156 = icmp eq i32 %155, 0
  br i1 %156, label %157, label %159

157:                                              ; preds = %154
  %158 = call i32 (i8*, ...) @printf(i8* getelementptr inbounds ([6 x i8], [6 x i8]* @.str.2, i64 0, i64 0))
  br label %159

159:                                              ; preds = %157, %154
  ret i32 0
}

declare dso_local i32 @gets(...) #1

; Function Attrs: nounwind readonly
declare dso_local double @atof(i8*) #2

; Function Attrs: nounwind readonly
declare dso_local i64 @strlen(i8*) #2

declare dso_local i32 @printf(i8*, ...) #1


!llvm.module.flags = !{!0}
!llvm.ident = !{!1}

!0 = !{i32 1, !"wchar_size", i32 4}
!1 = !{!"clang version 10.0.0-4ubuntu1 "}
